; Function Attrs: inlinehint null_pointer_is_valid sspstrong uwtable
define internal noundef i32 @dissect_zvt_amount(ptr noundef %0, i32 noundef %1, ptr noundef readonly captures(none) %2, ptr noundef %3) #4 {
  %5 = getelementptr inbounds nuw i8, ptr %2, i64 408
  %6 = load ptr, ptr %5, align 8
  %7 = tail call ptr @tvb_bcd_dig_to_str_be(ptr noundef %6, ptr noundef %0, i32 noundef %1, i32 noundef 6, ptr noundef null, i1 noundef zeroext false)
  %8 = load i32, ptr @hf_zvt_amount, align 4
  %9 = tail call i64 @g_ascii_strtoll(ptr noundef %7, ptr noundef null, i32 noundef 10)
  %10 = tail call ptr @proto_tree_add_uint64(ptr noundef %3, i32 noundef %8, ptr noundef %0, i32 noundef %1, i32 noundef 6, i64 noundef %9)
  ret i32 6
}